; ModuleID = '57/2888.c'
source_filename = "57/2888.c"
target datalayout = "e-m:e-p270:32:32-p271:32:32-p272:64:64-i64:64-f80:128-n8:16:32:64-S128"
target triple = "x86_64-pc-linux-gnu"

@.str = private unnamed_addr constant [3 x i8] c"%c\00", align 1
@.str.1 = private unnamed_addr constant [2 x i8] c"\0A\00", align 1

; Function Attrs: noinline nounwind uwtable
define dso_local i32 @main() #0 {
  %1 = alloca i32, align 4
  %2 = alloca i32, align 4
  %3 = alloca [100 x i8], align 16
  %4 = alloca i32, align 4
  %5 = alloca [55 x [100 x i8]], align 16
  %6 = alloca i32, align 4
  %7 = alloca i32, align 4
  store i32 0, i32* %1, align 4
  %8 = getelementptr inbounds [100 x i8], [100 x i8]* %3, i64 0, i64 0
  %9 = call i32 (i8*, ...) bitcast (i32 (...)* @gets to i32 (i8*, ...)*)(i8* %8)
  %10 = getelementptr inbounds [100 x i8], [100 x i8]* %3, i64 0, i64 0
  %11 = call i32 @atoi(i8* %10) #3
  store i32 %11, i32* %2, align 4
  store i32 0, i32* %4, align 4
  br label %12

12:                                               ; preds = %265, %0
  %13 = load i32, i32* %4, align 4
  %14 = load i32, i32* %2, align 4
  %15 = icmp slt i32 %13, %14
  br i1 %15, label %16, label %268

16:                                               ; preds = %12
  %17 = load i32, i32* %4, align 4
  %18 = sext i32 %17 to i64
  %19 = getelementptr inbounds [55 x [100 x i8]], [55 x [100 x i8]]* %5, i64 0, i64 %18
  %20 = getelementptr inbounds [100 x i8], [100 x i8]* %19, i64 0, i64 0
  %21 = call i32 (i8*, ...) bitcast (i32 (...)* @gets to i32 (i8*, ...)*)(i8* %20)
  %22 = load i32, i32* %4, align 4
  %23 = sext i32 %22 to i64
  %24 = getelementptr inbounds [55 x [100 x i8]], [55 x [100 x i8]]* %5, i64 0, i64 %23
  %25 = getelementptr inbounds [100 x i8], [100 x i8]* %24, i64 0, i64 0
  %26 = call i64 @strlen(i8* %25) #3
  %27 = trunc i64 %26 to i32
  store i32 %27, i32* %6, align 4
  %28 = load i32, i32* %4, align 4
  %29 = sext i32 %28 to i64
  %30 = getelementptr inbounds [55 x [100 x i8]], [55 x [100 x i8]]* %5, i64 0, i64 %29
  %31 = load i32, i32* %6, align 4
  %32 = sub nsw i32 %31, 2
  %33 = sext i32 %32 to i64
  %34 = getelementptr inbounds [100 x i8], [100 x i8]* %30, i64 0, i64 %33
  %35 = load i8, i8* %34, align 1
  %36 = sext i8 %35 to i32
  %37 = icmp eq i32 %36, 101
  br i1 %37, label %38, label %70

38:                                               ; preds = %16
  %39 = load i32, i32* %4, align 4
  %40 = sext i32 %39 to i64
  %41 = getelementptr inbounds [55 x [100 x i8]], [55 x [100 x i8]]* %5, i64 0, i64 %40
  %42 = load i32, i32* %6, align 4
  %43 = sub nsw i32 %42, 1
  %44 = sext i32 %43 to i64
  %45 = getelementptr inbounds [100 x i8], [100 x i8]* %41, i64 0, i64 %44
  %46 = load i8, i8* %45, align 1
  %47 = sext i8 %46 to i32
  %48 = icmp eq i32 %47, 114
  br i1 %48, label %49, label %70

49:                                               ; preds = %38
  store i32 0, i32* %7, align 4
  br label %50

50:                                               ; preds = %65, %49
  %51 = load i32, i32* %7, align 4
  %52 = load i32, i32* %6, align 4
  %53 = sub nsw i32 %52, 2
  %54 = icmp slt i32 %51, %53
  br i1 %54, label %55, label %68

55:                                               ; preds = %50
  %56 = load i32, i32* %4, align 4
  %57 = sext i32 %56 to i64
  %58 = getelementptr inbounds [55 x [100 x i8]], [55 x [100 x i8]]* %5, i64 0, i64 %57
  %59 = load i32, i32* %7, align 4
  %60 = sext i32 %59 to i64
  %61 = getelementptr inbounds [100 x i8], [100 x i8]* %58, i64 0, i64 %60
  %62 = load i8, i8* %61, align 1
  %63 = sext i8 %62 to i32
  %64 = call i32 (i8*, ...) @printf(i8* getelementptr inbounds ([3 x i8], [3 x i8]* @.str, i64 0, i64 0), i32 %63)
  br label %65

65:                                               ; preds = %55
  %66 = load i32, i32* %7, align 4
  %67 = add nsw i32 %66, 1
  store i32 %67, i32* %7, align 4
  br label %50

68:                                               ; preds = %50
  %69 = call i32 (i8*, ...) @printf(i8* getelementptr inbounds ([2 x i8], [2 x i8]* @.str.1, i64 0, i64 0))
  br label %70

70:                                               ; preds = %68, %38, %16
  %71 = load i32, i32* %4, align 4
  %72 = sext i32 %71 to i64
  %73 = getelementptr inbounds [55 x [100 x i8]], [55 x [100 x i8]]* %5, i64 0, i64 %72
  %74 = load i32, i32* %6, align 4
  %75 = sub nsw i32 %74, 2
  %76 = sext i32 %75 to i64
  %77 = getelementptr inbounds [100 x i8], [100 x i8]* %73, i64 0, i64 %76
  %78 = load i8, i8* %77, align 1
  %79 = sext i8 %78 to i32
  %80 = icmp eq i32 %79, 108
  br i1 %80, label %81, label %113

81:                                               ; preds = %70
  %82 = load i32, i32* %4, align 4
  %83 = sext i32 %82 to i64
  %84 = getelementptr inbounds [55 x [100 x i8]], [55 x [100 x i8]]* %5, i64 0, i64 %83
  %85 = load i32, i32* %6, align 4
  %86 = sub nsw i32 %85, 1
  %87 = sext i32 %86 to i64
  %88 = getelementptr inbounds [100 x i8], [100 x i8]* %84, i64 0, i64 %87
  %89 = load i8, i8* %88, align 1
  %90 = sext i8 %89 to i32
  %91 = icmp eq i32 %90, 121
  br i1 %91, label %92, label %113

92:                                               ; preds = %81
  store i32 0, i32* %7, align 4
  br label %93

93:                                               ; preds = %108, %92
  %94 = load i32, i32* %7, align 4
  %95 = load i32, i32* %6, align 4
  %96 = sub nsw i32 %95, 2
  %97 = icmp slt i32 %94, %96
  br i1 %97, label %98, label %111

98:                                               ; preds = %93
  %99 = load i32, i32* %4, align 4
  %100 = sext i32 %99 to i64
  %101 = getelementptr inbounds [55 x [100 x i8]], [55 x [100 x i8]]* %5, i64 0, i64 %100
  %102 = load i32, i32* %7, align 4
  %103 = sext i32 %102 to i64
  %104 = getelementptr inbounds [100 x i8], [100 x i8]* %101, i64 0, i64 %103
  %105 = load i8, i8* %104, align 1
  %106 = sext i8 %105 to i32
  %107 = call i32 (i8*, ...) @printf(i8* getelementptr inbounds ([3 x i8], [3 x i8]* @.str, i64 0, i64 0), i32 %106)
  br label %108

108:                                              ; preds = %98
  %109 = load i32, i32* %7, align 4
  %110 = add nsw i32 %109, 1
  store i32 %110, i32* %7, align 4
  br label %93

111:                                              ; preds = %93
  %112 = call i32 (i8*, ...) @printf(i8* getelementptr inbounds ([2 x i8], [2 x i8]* @.str.1, i64 0, i64 0))
  br label %113

113:                                              ; preds = %111, %81, %70
  %114 = load i32, i32* %4, align 4
  %115 = sext i32 %114 to i64
  %116 = getelementptr inbounds [55 x [100 x i8]], [55 x [100 x i8]]* %5, i64 0, i64 %115
  %117 = load i32, i32* %6, align 4
  %118 = sub nsw i32 %117, 3
  %119 = sext i32 %118 to i64
  %120 = getelementptr inbounds [100 x i8], [100 x i8]* %116, i64 0, i64 %119
  %121 = load i8, i8* %120, align 1
  %122 = sext i8 %121 to i32
  %123 = icmp eq i32 %122, 105
  br i1 %123, label %124, label %167

124:                                              ; preds = %113
  %125 = load i32, i32* %4, align 4
  %126 = sext i32 %125 to i64
  %127 = getelementptr inbounds [55 x [100 x i8]], [55 x [100 x i8]]* %5, i64 0, i64 %126
  %128 = load i32, i32* %6, align 4
  %129 = sub nsw i32 %128, 2
  %130 = sext i32 %129 to i64
  %131 = getelementptr inbounds [100 x i8], [100 x i8]* %127, i64 0, i64 %130
  %132 = load i8, i8* %131, align 1
  %133 = sext i8 %132 to i32
  %134 = icmp eq i32 %133, 110
  br i1 %134, label %135, label %167

135:                                              ; preds = %124
  %136 = load i32, i32* %4, align 4
  %137 = sext i32 %136 to i64
  %138 = getelementptr inbounds [55 x [100 x i8]], [55 x [100 x i8]]* %5, i64 0, i64 %137
  %139 = load i32, i32* %6, align 4
  %140 = sub nsw i32 %139, 1
  %141 = sext i32 %140 to i64
  %142 = getelementptr inbounds [100 x i8], [100 x i8]* %138, i64 0, i64 %141
  %143 = load i8, i8* %142, align 1
  %144 = sext i8 %143 to i32
  %145 = icmp eq i32 %144, 103
  br i1 %145, label %146, label %167

146:                                              ; preds = %135
  store i32 0, i32* %7, align 4
  br label %147

147:                                              ; preds = %162, %146
  %148 = load i32, i32* %7, align 4
  %149 = load i32, i32* %6, align 4
  %150 = sub nsw i32 %149, 3
  %151 = icmp slt i32 %148, %150
  br i1 %151, label %152, label %165

152:                                              ; preds = %147
  %153 = load i32, i32* %4, align 4
  %154 = sext i32 %153 to i64
  %155 = getelementptr inbounds [55 x [100 x i8]], [55 x [100 x i8]]* %5, i64 0, i64 %154
  %156 = load i32, i32* %7, align 4
  %157 = sext i32 %156 to i64
  %158 = getelementptr inbounds [100 x i8], [100 x i8]* %155, i64 0, i64 %157
  %159 = load i8, i8* %158, align 1
  %160 = sext i8 %159 to i32
  %161 = call i32 (i8*, ...) @printf(i8* getelementptr inbounds ([3 x i8], [3 x i8]* @.str, i64 0, i64 0), i32 %160)
  br label %162

162:                                              ; preds = %152
  %163 = load i32, i32* %7, align 4
  %164 = add nsw i32 %163, 1
  store i32 %164, i32* %7, align 4
  br label %147

165:                                              ; preds = %147
  %166 = call i32 (i8*, ...) @printf(i8* getelementptr inbounds ([2 x i8], [2 x i8]* @.str.1, i64 0, i64 0))
  br label %167

167:                                              ; preds = %165, %135, %124, %113
  %168 = load i32, i32* %4, align 4
  %169 = sext i32 %168 to i64
  %170 = getelementptr inbounds [55 x [100 x i8]], [55 x [100 x i8]]* %5, i64 0, i64 %169
  %171 = load i32, i32* %6, align 4
  %172 = sub nsw i32 %171, 2
  %173 = sext i32 %172 to i64
  %174 = getelementptr inbounds [100 x i8], [100 x i8]* %170, i64 0, i64 %173
  %175 = load i8, i8* %174, align 1
  %176 = sext i8 %175 to i32
  %177 = icmp ne i32 %176, 101
  br i1 %177, label %189, label %178

178:                                              ; preds = %167
  %179 = load i32, i32* %4, align 4
  %180 = sext i32 %179 to i64
  %181 = getelementptr inbounds [55 x [100 x i8]], [55 x [100 x i8]]* %5, i64 0, i64 %180
  %182 = load i32, i32* %6, align 4
  %183 = sub nsw i32 %182, 1
  %184 = sext i32 %183 to i64
  %185 = getelementptr inbounds [100 x i8], [100 x i8]* %181, i64 0, i64 %184
  %186 = load i8, i8* %185, align 1
  %187 = sext i8 %186 to i32
  %188 = icmp ne i32 %187, 114
  br i1 %188, label %189, label %264

189:                                              ; preds = %178, %167
  %190 = load i32, i32* %4, align 4
  %191 = sext i32 %190 to i64
  %192 = getelementptr inbounds [55 x [100 x i8]], [55 x [100 x i8]]* %5, i64 0, i64 %191
  %193 = load i32, i32* %6, align 4
  %194 = sub nsw i32 %193, 2
  %195 = sext i32 %194 to i64
  %196 = getelementptr inbounds [100 x i8], [100 x i8]* %192, i64 0, i64 %195
  %197 = load i8, i8* %196, align 1
  %198 = sext i8 %197 to i32
  %199 = icmp ne i32 %198, 108
  br i1 %199, label %211, label %200

200:                                              ; preds = %189
  %201 = load i32, i32* %4, align 4
  %202 = sext i32 %201 to i64
  %203 = getelementptr inbounds [55 x [100 x i8]], [55 x [100 x i8]]* %5, i64 0, i64 %202
  %204 = load i32, i32* %6, align 4
  %205 = sub nsw i32 %204, 1
  %206 = sext i32 %205 to i64
  %207 = getelementptr inbounds [100 x i8], [100 x i8]* %203, i64 0, i64 %206
  %208 = load i8, i8* %207, align 1
  %209 = sext i8 %208 to i32
  %210 = icmp ne i32 %209, 121
  br i1 %210, label %211, label %264

211:                                              ; preds = %200, %189
  %212 = load i32, i32* %4, align 4
  %213 = sext i32 %212 to i64
  %214 = getelementptr inbounds [55 x [100 x i8]], [55 x [100 x i8]]* %5, i64 0, i64 %213
  %215 = load i32, i32* %6, align 4
  %216 = sub nsw i32 %215, 3
  %217 = sext i32 %216 to i64
  %218 = getelementptr inbounds [100 x i8], [100 x i8]* %214, i64 0, i64 %217
  %219 = load i8, i8* %218, align 1
  %220 = sext i8 %219 to i32
  %221 = icmp ne i32 %220, 105
  br i1 %221, label %244, label %222

222:                                              ; preds = %211
  %223 = load i32, i32* %4, align 4
  %224 = sext i32 %223 to i64
  %225 = getelementptr inbounds [55 x [100 x i8]], [55 x [100 x i8]]* %5, i64 0, i64 %224
  %226 = load i32, i32* %6, align 4
  %227 = sub nsw i32 %226, 2
  %228 = sext i32 %227 to i64
  %229 = getelementptr inbounds [100 x i8], [100 x i8]* %225, i64 0, i64 %228
  %230 = load i8, i8* %229, align 1
  %231 = sext i8 %230 to i32
  %232 = icmp ne i32 %231, 110
  br i1 %232, label %244, label %233

233:                                              ; preds = %222
  %234 = load i32, i32* %4, align 4
  %235 = sext i32 %234 to i64
  %236 = getelementptr inbounds [55 x [100 x i8]], [55 x [100 x i8]]* %5, i64 0, i64 %235
  %237 = load i32, i32* %6, align 4
  %238 = sub nsw i32 %237, 1
  %239 = sext i32 %238 to i64
  %240 = getelementptr inbounds [100 x i8], [100 x i8]* %236, i64 0, i64 %239
  %241 = load i8, i8* %240, align 1
  %242 = sext i8 %241 to i32
  %243 = icmp ne i32 %242, 103
  br i1 %243, label %244, label %264

244:                                              ; preds = %233, %222, %211
  store i32 0, i32* %7, align 4
  br label %245

245:                                              ; preds = %259, %244
  %246 = load i32, i32* %7, align 4
  %247 = load i32, i32* %6, align 4
  %248 = icmp slt i32 %246, %247
  br i1 %248, label %249, label %262

249:                                              ; preds = %245
  %250 = load i32, i32* %4, align 4
  %251 = sext i32 %250 to i64
  %252 = getelementptr inbounds [55 x [100 x i8]], [55 x [100 x i8]]* %5, i64 0, i64 %251
  %253 = load i32, i32* %7, align 4
  %254 = sext i32 %253 to i64
  %255 = getelementptr inbounds [100 x i8], [100 x i8]* %252, i64 0, i64 %254
  %256 = load i8, i8* %255, align 1
  %257 = sext i8 %256 to i32
  %258 = call i32 (i8*, ...) @printf(i8* getelementptr inbounds ([3 x i8], [3 x i8]* @.str, i64 0, i64 0), i32 %257)
  br label %259

259:                                              ; preds = %249
  %260 = load i32, i32* %7, align 4
  %261 = add nsw i32 %260, 1
  store i32 %261, i32* %7, align 4
  br label %245

262:                                              ; preds = %245
  %263 = call i32 (i8*, ...) @printf(i8* getelementptr inbounds ([2 x i8], [2 x i8]* @.str.1, i64 0, i64 0))
  br label %264

264:                                              ; preds = %262, %233, %200, %178
  br label %265

265:                                              ; preds = %264
  %266 = load i32, i32* %4, align 4
  %267 = add nsw i32 %266, 1
  store i32 %267, i32* %4, align 4
  br label %12

268:                                              ; preds = %12
  ret i32 0
}

declare dso_local i32 @gets(...) #1

; Function Attrs: nounwind readonly
declare dso_local i32 @atoi(i8*) #2

; Function Attrs: nounwind readonly
declare dso_local i64 @strlen(i8*) #2

declare dso_local i32 @printf(i8*, ...) #1


!llvm.module.flags = !{!0}
!llvm.ident = !{!1}

!0 = !{i32 1, !"wchar_size", i32 4}
!1 = !{!"clang version 10.0.0-4ubuntu1 "}
